; Function Attrs: mustprogress uwtable
define dso_local noundef zeroext i1 @_ZN4Luau8Unifier25unifyEPKNS_4TypeEPKNS_16IntersectionTypeE(ptr noundef nonnull align 8 dereferenceable(336) %0, ptr noundef %1, ptr noundef readonly captures(none) %2) local_unnamed_addr #4 align 2 {
  %4 = load ptr, ptr %2, align 8, !tbaa !112
  %5 = getelementptr inbounds nuw i8, ptr %2, i64 8
  %6 = load ptr, ptr %5, align 8, !tbaa !112
  %.not10 = icmp eq ptr %4, %6
  br i1 %.not10, label %._crit_edge, label %.lr.ph

._crit_edge:                                      ; preds = %.lr.ph, %3
  %.0.lcssa = phi i1 [ true, %3 ], [ %9, %.lr.ph ]
  ret i1 %.0.lcssa

.lr.ph:                                           ; preds = %3, %.lr.ph
  %.012 = phi i1 [ %9, %.lr.ph ], [ true, %3 ]
  %.sroa.07.011 = phi ptr [ %10, %.lr.ph ], [ %4, %3 ]
  %7 = load ptr, ptr %.sroa.07.011, align 8, !tbaa !77
  %8 = tail call noundef zeroext i1 @_ZN4Luau8Unifier25unifyEPKNS_4TypeES3_(ptr noundef nonnull align 8 dereferenceable(336) %0, ptr noundef %1, ptr noundef %7)
  %9 = and i1 %.012, %8
  %10 = getelementptr inbounds nuw i8, ptr %.sroa.07.011, i64 8
  %.not = icmp eq ptr %10, %6
  br i1 %.not, label %._crit_edge, label %.lr.ph
}